target datalayout = "e-m:e-p270:32:32-p271:32:32-p272:64:64-i64:64-i128:128-f80:128-n8:16:32:64-S128"
target triple = "x86_64-pc-linux-gnu"

%struct.CbsP_Par_t_ = type { i32, i32, i32, i32, i32, i32, i32, i32, i32, i32, i32, i32, i32, i32, i32, i32, i32, i32, i32, i32, i32, i32, i32, i32, i64, i64, i64, i64, i64, i64, i64, i64, i64, i32, i32, i32 }

; Function Attrs: nounwind uwtable
define void @CbsP_SetDefaultParams(ptr noundef %0) #0 {
  %2 = alloca ptr, align 8
  store ptr %0, ptr %2, align 8, !tbaa !3
  %3 = load ptr, ptr %2, align 8, !tbaa !3
  call void @llvm.memset.p0.i64(ptr align 8 %3, i8 0, i64 184, i1 false)
  %4 = load ptr, ptr %2, align 8, !tbaa !3
  %5 = getelementptr inbounds nuw %struct.CbsP_Par_t_, ptr %4, i32 0, i32 0
  store i32 1000, ptr %5, align 8, !tbaa !8
  %6 = load ptr, ptr %2, align 8, !tbaa !3
  %7 = getelementptr inbounds nuw %struct.CbsP_Par_t_, ptr %6, i32 0, i32 1
  store i32 100, ptr %7, align 4, !tbaa !12
  %8 = load ptr, ptr %2, align 8, !tbaa !3
  %9 = getelementptr inbounds nuw %struct.CbsP_Par_t_, ptr %8, i32 0, i32 7
  store i32 1, ptr %9, align 4, !tbaa !13
  %10 = load ptr, ptr %2, align 8, !tbaa !3
  %11 = getelementptr inbounds nuw %struct.CbsP_Par_t_, ptr %10, i32 0, i32 8
  store i32 0, ptr %11, align 8, !tbaa !14
  %12 = load ptr, ptr %2, align 8, !tbaa !3
  %13 = getelementptr inbounds nuw %struct.CbsP_Par_t_, ptr %12, i32 0, i32 9
  store i32 0, ptr %13, align 4, !tbaa !15
  %14 = load ptr, ptr %2, align 8, !tbaa !3
  %15 = getelementptr inbounds nuw %struct.CbsP_Par_t_, ptr %14, i32 0, i32 10
  store i32 1, ptr %15, align 8, !tbaa !16
  %16 = load ptr, ptr %2, align 8, !tbaa !3
  %17 = getelementptr inbounds nuw %struct.CbsP_Par_t_, ptr %16, i32 0, i32 11
  store i32 1, ptr %17, align 4, !tbaa !17
  %18 = load ptr, ptr %2, align 8, !tbaa !3
  %19 = getelementptr inbounds nuw %struct.CbsP_Par_t_, ptr %18, i32 0, i32 12
  store i32 0, ptr %19, align 8, !tbaa !18
  %20 = load ptr, ptr %2, align 8, !tbaa !3
  %21 = getelementptr inbounds nuw %struct.CbsP_Par_t_, ptr %20, i32 0, i32 13
  store i32 0, ptr %21, align 4, !tbaa !19
  %22 = load ptr, ptr %2, align 8, !tbaa !3
  %23 = getelementptr inbounds nuw %struct.CbsP_Par_t_, ptr %22, i32 0, i32 15
  store i32 0, ptr %23, align 4, !tbaa !20
  %24 = load ptr, ptr %2, align 8, !tbaa !3
  %25 = getelementptr inbounds nuw %struct.CbsP_Par_t_, ptr %24, i32 0, i32 16
  store i32 0, ptr %25, align 8, !tbaa !21
  %26 = load ptr, ptr %2, align 8, !tbaa !3
  %27 = getelementptr inbounds nuw %struct.CbsP_Par_t_, ptr %26, i32 0, i32 18
  store i32 0, ptr %27, align 8, !tbaa !22
  %28 = load ptr, ptr %2, align 8, !tbaa !3
  %29 = getelementptr inbounds nuw %struct.CbsP_Par_t_, ptr %28, i32 0, i32 19
  store i32 0, ptr %29, align 4, !tbaa !23
  %30 = load ptr, ptr %2, align 8, !tbaa !3
  %31 = getelementptr inbounds nuw %struct.CbsP_Par_t_, ptr %30, i32 0, i32 24
  store i64 0, ptr %31, align 8, !tbaa !24
  %32 = load ptr, ptr %2, align 8, !tbaa !3
  %33 = getelementptr inbounds nuw %struct.CbsP_Par_t_, ptr %32, i32 0, i32 25
  store i64 0, ptr %33, align 8, !tbaa !25
  %34 = load ptr, ptr %2, align 8, !tbaa !3
  %35 = getelementptr inbounds nuw %struct.CbsP_Par_t_, ptr %34, i32 0, i32 26
  store i64 0, ptr %35, align 8, !tbaa !26
  %36 = load ptr, ptr %2, align 8, !tbaa !3
  %37 = getelementptr inbounds nuw %struct.CbsP_Par_t_, ptr %36, i32 0, i32 27
  store i64 0, ptr %37, align 8, !tbaa !27
  %38 = load ptr, ptr %2, align 8, !tbaa !3
  %39 = getelementptr inbounds nuw %struct.CbsP_Par_t_, ptr %38, i32 0, i32 28
  store i64 0, ptr %39, align 8, !tbaa !28
  %40 = load ptr, ptr %2, align 8, !tbaa !3
  %41 = getelementptr inbounds nuw %struct.CbsP_Par_t_, ptr %40, i32 0, i32 29
  store i64 0, ptr %41, align 8, !tbaa !29
  %42 = load ptr, ptr %2, align 8, !tbaa !3
  %43 = getelementptr inbounds nuw %struct.CbsP_Par_t_, ptr %42, i32 0, i32 21
  store i32 0, ptr %43, align 4, !tbaa !30
  %44 = load ptr, ptr %2, align 8, !tbaa !3
  %45 = getelementptr inbounds nuw %struct.CbsP_Par_t_, ptr %44, i32 0, i32 22
  store i32 0, ptr %45, align 8, !tbaa !31
  %46 = load ptr, ptr %2, align 8, !tbaa !3
  %47 = getelementptr inbounds nuw %struct.CbsP_Par_t_, ptr %46, i32 0, i32 23
  store i32 0, ptr %47, align 4, !tbaa !32
  %48 = load ptr, ptr %2, align 8, !tbaa !3
  %49 = getelementptr inbounds nuw %struct.CbsP_Par_t_, ptr %48, i32 0, i32 33
  store i32 100, ptr %49, align 8, !tbaa !33
  %50 = load ptr, ptr %2, align 8, !tbaa !3
  %51 = getelementptr inbounds nuw %struct.CbsP_Par_t_, ptr %50, i32 0, i32 34
  store i32 100, ptr %51, align 4, !tbaa !34
  %52 = load ptr, ptr %2, align 8, !tbaa !3
  %53 = getelementptr inbounds nuw %struct.CbsP_Par_t_, ptr %52, i32 0, i32 35
  store i32 500, ptr %53, align 8, !tbaa !35
  ret void
}