; Function Attrs: mustprogress nofree norecurse nosync nounwind willreturn memory(argmem: write) uwtable
define void @CbsP_SetDefaultParams(ptr noundef writeonly captures(none) initializes((0, 184)) %0) local_unnamed_addr #0 {
  %2 = getelementptr inbounds nuw i8, ptr %0, i64 8
  tail call void @llvm.memset.p0.i64(ptr noundef nonnull align 8 dereferenceable(184) %2, i8 0, i64 176, i1 false)
  store i32 1000, ptr %0, align 8, !tbaa !3
  %3 = getelementptr inbounds nuw i8, ptr %0, i64 4
  store i32 100, ptr %3, align 4, !tbaa !9
  %4 = getelementptr inbounds nuw i8, ptr %0, i64 28
  store i32 1, ptr %4, align 4, !tbaa !10
  %5 = getelementptr inbounds nuw i8, ptr %0, i64 36
  store i32 0, ptr %5, align 4, !tbaa !11
  %6 = getelementptr inbounds nuw i8, ptr %0, i64 40
  store i32 1, ptr %6, align 8, !tbaa !12
  %7 = getelementptr inbounds nuw i8, ptr %0, i64 44
  store i32 1, ptr %7, align 4, !tbaa !13
  %8 = getelementptr inbounds nuw i8, ptr %0, i64 52
  store i32 0, ptr %8, align 4, !tbaa !14
  %9 = getelementptr inbounds nuw i8, ptr %0, i64 64
  store i32 0, ptr %9, align 8, !tbaa !15
  %10 = getelementptr inbounds nuw i8, ptr %0, i64 76
  store i32 0, ptr %10, align 4, !tbaa !16
  %11 = getelementptr inbounds nuw i8, ptr %0, i64 84
  %12 = getelementptr inbounds nuw i8, ptr %0, i64 168
  tail call void @llvm.memset.p0.i64(ptr noundef nonnull align 4 dereferenceable(60) %11, i8 0, i64 60, i1 false)
  store i32 100, ptr %12, align 8, !tbaa !17
  %13 = getelementptr inbounds nuw i8, ptr %0, i64 172
  store i32 100, ptr %13, align 4, !tbaa !18
  %14 = getelementptr inbounds nuw i8, ptr %0, i64 176
  store i32 500, ptr %14, align 8, !tbaa !19
  ret void
}